target datalayout = "e-m:e-p270:32:32-p271:32:32-p272:64:64-i64:64-i128:128-f80:128-n8:16:32:64-S128"
target triple = "x86_64-pc-linux-gnu"

%"struct.vcpkg::StringView" = type { ptr, i64 }
%"struct.vcpkg::Unicode::Utf8Decoder" = type { i32, ptr, ptr, ptr }
%"struct.vcpkg::LocalizedString" = type { %"class.std::__cxx11::basic_string" }
%"class.std::__cxx11::basic_string" = type { %"struct.std::__cxx11::basic_string<char>::_Alloc_hider", i64, %union.anon }
%"struct.std::__cxx11::basic_string<char>::_Alloc_hider" = type { ptr }
%union.anon = type { i64, [8 x i8] }
%"struct.vcpkg::SourceLoc" = type { %"struct.vcpkg::Unicode::Utf8Decoder", %"struct.vcpkg::Unicode::Utf8Decoder", i32, i32 }
%"struct.vcpkg::ParseMessages" = type { %"struct.vcpkg::Optional", %"class.std::vector" }
%"struct.vcpkg::Optional" = type { %"struct.vcpkg::details::OptionalStorage" }
%"struct.vcpkg::details::OptionalStorage" = type { %"struct.vcpkg::details::OptionalStorageDtor" }
%"struct.vcpkg::details::OptionalStorageDtor" = type { i8, %union.anon.1 }
%union.anon.1 = type { %"struct.vcpkg::LocalizedString" }
%"class.std::vector" = type { %"struct.std::_Vector_base" }
%"struct.std::_Vector_base" = type { %"struct.std::_Vector_base<vcpkg::ParseMessage, std::allocator<vcpkg::ParseMessage>>::_Vector_impl" }
%"struct.std::_Vector_base<vcpkg::ParseMessage, std::allocator<vcpkg::ParseMessage>>::_Vector_impl" = type { %"struct.std::_Vector_base<vcpkg::ParseMessage, std::allocator<vcpkg::ParseMessage>>::_Vector_impl_data" }
%"struct.std::_Vector_base<vcpkg::ParseMessage, std::allocator<vcpkg::ParseMessage>>::_Vector_impl_data" = type { ptr, ptr, ptr }
%"struct.vcpkg::ParserBase" = type { %"struct.vcpkg::Unicode::Utf8Decoder", %"struct.vcpkg::Unicode::Utf8Decoder", i32, i32, %"struct.vcpkg::StringView", %"struct.vcpkg::Optional.5", %"struct.vcpkg::ParseMessages" }
%"struct.vcpkg::Optional.5" = type { %"struct.vcpkg::details::OptionalStorage.6" }
%"struct.vcpkg::details::OptionalStorage.6" = type { %"struct.vcpkg::details::OptionalStorageDtor.7" }
%"struct.vcpkg::details::OptionalStorageDtor.7" = type { i8, %union.anon.8 }
%union.anon.8 = type { %"struct.vcpkg::StringView" }

; Function Attrs: mustprogress nounwind uwtable
define linkonce_odr dso_local void @_ZNK5vcpkg10ParserBase7cur_locEv(ptr dead_on_unwind noalias writable sret(%"struct.vcpkg::SourceLoc") align 8 %0, ptr noundef nonnull align 8 dereferenceable(176) %1) #2 comdat align 2 {
  %3 = alloca ptr, align 8
  store ptr %1, ptr %3, align 8, !tbaa !77
  %4 = load ptr, ptr %3, align 8
  %5 = getelementptr inbounds nuw %"struct.vcpkg::SourceLoc", ptr %0, i32 0, i32 0
  %6 = getelementptr inbounds nuw %"struct.vcpkg::ParserBase", ptr %4, i32 0, i32 0
  call void @llvm.memcpy.p0.p0.i64(ptr align 8 %5, ptr align 8 %6, i64 32, i1 false), !tbaa.struct !19
  %7 = getelementptr inbounds nuw %"struct.vcpkg::SourceLoc", ptr %0, i32 0, i32 1
  %8 = getelementptr inbounds nuw %"struct.vcpkg::ParserBase", ptr %4, i32 0, i32 1
  call void @llvm.memcpy.p0.p0.i64(ptr align 8 %7, ptr align 8 %8, i64 32, i1 false), !tbaa.struct !19
  %9 = getelementptr inbounds nuw %"struct.vcpkg::SourceLoc", ptr %0, i32 0, i32 2
  %10 = getelementptr inbounds nuw %"struct.vcpkg::ParserBase", ptr %4, i32 0, i32 2
  %11 = load i32, ptr %10, align 8, !tbaa !83
  store i32 %11, ptr %9, align 8, !tbaa !108
  %12 = getelementptr inbounds nuw %"struct.vcpkg::SourceLoc", ptr %0, i32 0, i32 3
  %13 = getelementptr inbounds nuw %"struct.vcpkg::ParserBase", ptr %4, i32 0, i32 3
  %14 = load i32, ptr %13, align 4, !tbaa !96
  store i32 %14, ptr %12, align 4, !tbaa !109
  ret void
}

; Function Attrs: mustprogress uwtable
define dso_local void @_ZN5vcpkg10ParserBase11add_warningEONS_15LocalizedStringE(ptr noundef nonnull align 8 dereferenceable(176) %0, ptr noundef nonnull align 8 dereferenceable(32) %1) #0 align 2 {
  %3 = alloca ptr, align 8
  %4 = alloca ptr, align 8
  %5 = alloca %"struct.vcpkg::SourceLoc", align 8
  store ptr %0, ptr %3, align 8, !tbaa !77
  store ptr %1, ptr %4, align 8, !tbaa !4
  %6 = load ptr, ptr %3, align 8
  %7 = load ptr, ptr %4, align 8, !tbaa !4
  call void @llvm.lifetime.start.p0(i64 72, ptr %5) #19
  call void @_ZNK5vcpkg10ParserBase7cur_locEv(ptr dead_on_unwind writable sret(%"struct.vcpkg::SourceLoc") align 8 %5, ptr noundef nonnull align 8 dereferenceable(176) %6)
  call void @_ZN5vcpkg10ParserBase11add_warningEONS_15LocalizedStringERKNS_9SourceLocE(ptr noundef nonnull align 8 dereferenceable(176) %6, ptr noundef nonnull align 8 dereferenceable(32) %7, ptr noundef nonnull align 8 dereferenceable(72) %5)
  call void @llvm.lifetime.end.p0(i64 72, ptr %5) #19
  ret void
}