; Function Attrs: mustprogress uwtable
define dso_local void @_ZN5vcpkg10ParserBase11add_warningEONS_15LocalizedStringE(ptr noundef nonnull align 8 dereferenceable(176) %0, ptr noundef nonnull align 8 dereferenceable(32) %1) local_unnamed_addr #0 align 2 {
  %3 = alloca %"struct.vcpkg::SourceLoc", align 8
  call void @llvm.lifetime.start.p0(i64 72, ptr nonnull %3) #21
  tail call void @llvm.experimental.noalias.scope.decl(metadata !118)
  call void @llvm.memcpy.p0.p0.i64(ptr noundef nonnull align 8 dereferenceable(32) %3, ptr noundef nonnull align 8 dereferenceable(176) %0, i64 32, i1 false), !tbaa.struct !7
  %4 = getelementptr inbounds nuw i8, ptr %3, i64 32
  %5 = getelementptr inbounds nuw i8, ptr %0, i64 32
  call void @llvm.memcpy.p0.p0.i64(ptr noundef nonnull align 8 dereferenceable(32) %4, ptr noundef nonnull align 8 dereferenceable(32) %5, i64 32, i1 false), !tbaa.struct !7
  %6 = getelementptr inbounds nuw i8, ptr %3, i64 64
  %7 = getelementptr inbounds nuw i8, ptr %0, i64 64
  %8 = load i32, ptr %7, align 8, !tbaa !55, !noalias !118
  store i32 %8, ptr %6, align 8, !tbaa !92, !alias.scope !118
  %9 = getelementptr inbounds nuw i8, ptr %3, i64 68
  %10 = getelementptr inbounds nuw i8, ptr %0, i64 68
  %11 = load i32, ptr %10, align 4, !tbaa !68, !noalias !118
  store i32 %11, ptr %9, align 4, !tbaa !93, !alias.scope !118
  call void @_ZN5vcpkg10ParserBase11add_warningEONS_15LocalizedStringERKNS_9SourceLocE(ptr noundef nonnull align 8 dereferenceable(176) %0, ptr noundef nonnull align 8 dereferenceable(32) %1, ptr noundef nonnull align 8 dereferenceable(72) %3)
  call void @llvm.lifetime.end.p0(i64 72, ptr nonnull %3) #21
  ret void
}